; ModuleID = 'source-C-CXX/55/1975.c'
source_filename = "source-C-CXX/55/1975.c"
target datalayout = "e-m:e-p270:32:32-p271:32:32-p272:64:64-i64:64-f80:128-n8:16:32:64-S128"
target triple = "x86_64-pc-linux-gnu"

@.str = private unnamed_addr constant [3 x i8] c"%d\00", align 1

; Function Attrs: nofree nounwind sspstrong uwtable
define dso_local void @main() local_unnamed_addr #0 {
  %1 = alloca i32, align 4
  %2 = alloca [5 x i32], align 16
  %3 = bitcast i32* %1 to i8*
  call void @llvm.lifetime.start.p0i8(i64 4, i8* nonnull %3) #4
  %4 = bitcast [5 x i32]* %2 to i8*
  call void @llvm.lifetime.start.p0i8(i64 20, i8* nonnull %4) #4
  %5 = call i32 (i8*, ...) @__isoc99_scanf(i8* getelementptr inbounds ([3 x i8], [3 x i8]* @.str, i64 0, i64 0), i32* nonnull %1)
  %6 = load i32, i32* %1, align 4, !tbaa !5
  %7 = srem i32 %6, 10
  %8 = getelementptr inbounds [5 x i32], [5 x i32]* %2, i64 0, i64 4
  store i32 %7, i32* %8, align 16, !tbaa !5
  %9 = sdiv i32 %6, 10
  %10 = srem i32 %9, 10
  %11 = getelementptr inbounds [5 x i32], [5 x i32]* %2, i64 0, i64 3
  store i32 %10, i32* %11, align 4, !tbaa !5
  %12 = sdiv i32 %6, 100
  %13 = srem i32 %12, 10
  %14 = getelementptr inbounds [5 x i32], [5 x i32]* %2, i64 0, i64 2
  store i32 %13, i32* %14, align 8, !tbaa !5
  %15 = sdiv i32 %6, 1000
  %16 = srem i32 %15, 10
  %17 = getelementptr inbounds [5 x i32], [5 x i32]* %2, i64 0, i64 1
  store i32 %16, i32* %17, align 4, !tbaa !5
  %18 = sdiv i32 %6, 10000
  %19 = srem i32 %18, 10
  %20 = getelementptr inbounds [5 x i32], [5 x i32]* %2, i64 0, i64 0
  store i32 %19, i32* %20, align 16, !tbaa !5
  %21 = sdiv i32 %6, 100000
  store i32 %21, i32* %1, align 4, !tbaa !5
  %22 = icmp eq i32 %19, 0
  br i1 %22, label %30, label %25

23:                                               ; preds = %30
  %24 = icmp ugt i32 %32, 3
  br i1 %24, label %45, label %25

25:                                               ; preds = %0, %23
  %26 = phi i32 [ %33, %23 ], [ 0, %0 ]
  %27 = zext i32 %26 to i64
  %28 = call i32 (i8*, ...) @printf(i8* nonnull dereferenceable(1) getelementptr inbounds ([3 x i8], [3 x i8]* @.str, i64 0, i64 0), i32 %7)
  %29 = icmp ult i32 %26, 4
  br i1 %29, label %38, label %45, !llvm.loop !9

30:                                               ; preds = %0, %30
  %31 = phi i64 [ %34, %30 ], [ 0, %0 ]
  %32 = phi i32 [ %33, %30 ], [ 0, %0 ]
  %33 = add nuw nsw i32 %32, 1
  %34 = add nuw nsw i64 %31, 1
  %35 = getelementptr inbounds [5 x i32], [5 x i32]* %2, i64 0, i64 %34
  %36 = load i32, i32* %35, align 4, !tbaa !5
  %37 = icmp eq i32 %36, 0
  br i1 %37, label %30, label %23, !llvm.loop !11

38:                                               ; preds = %25, %38
  %39 = phi i64 [ %43, %38 ], [ 3, %25 ]
  %40 = getelementptr inbounds [5 x i32], [5 x i32]* %2, i64 0, i64 %39
  %41 = load i32, i32* %40, align 4, !tbaa !5
  %42 = call i32 (i8*, ...) @printf(i8* nonnull dereferenceable(1) getelementptr inbounds ([3 x i8], [3 x i8]* @.str, i64 0, i64 0), i32 %41)
  %43 = add nsw i64 %39, -1
  %44 = icmp ugt i64 %39, %27
  br i1 %44, label %38, label %45, !llvm.loop !9

45:                                               ; preds = %38, %25, %23
  %46 = call i32 @putchar(i32 10)
  call void @llvm.lifetime.end.p0i8(i64 20, i8* nonnull %4) #4
  call void @llvm.lifetime.end.p0i8(i64 4, i8* nonnull %3) #4
  ret void
}

; Function Attrs: argmemonly mustprogress nofree nosync nounwind willreturn
declare void @llvm.lifetime.start.p0i8(i64 immarg, i8* nocapture) #1

; Function Attrs: nofree nounwind
declare noundef i32 @__isoc99_scanf(i8* nocapture noundef readonly, ...) local_unnamed_addr #2

; Function Attrs: nofree nounwind
declare noundef i32 @printf(i8* nocapture noundef readonly, ...) local_unnamed_addr #2

; Function Attrs: argmemonly mustprogress nofree nosync nounwind willreturn
declare void @llvm.lifetime.end.p0i8(i64 immarg, i8* nocapture) #1

; Function Attrs: nofree nounwind
declare noundef i32 @putchar(i32 noundef) local_unnamed_addr #3


!llvm.module.flags = !{!0, !1, !2, !3}
!llvm.ident = !{!4}

!0 = !{i32 1, !"wchar_size", i32 4}
!1 = !{i32 7, !"PIC Level", i32 2}
!2 = !{i32 7, !"PIE Level", i32 2}
!3 = !{i32 7, !"uwtable", i32 1}
!4 = !{!"clang version 13.0.0"}
!5 = !{!6, !6, i64 0}
!6 = !{!"int", !7, i64 0}
!7 = !{!"omnipotent char", !8, i64 0}
!8 = !{!"Simple C/C++ TBAA"}
!9 = distinct !{!9, !10}
!10 = !{!"llvm.loop.mustprogress"}
!11 = distinct !{!11, !10}
